target datalayout = "e-m:e-p270:32:32-p271:32:32-p272:64:64-i64:64-i128:128-f80:128-n8:16:32:64-S128"
target triple = "x86_64-pc-linux-gnu"

%struct.filter = type { [65536 x i8], [65536 x i8], i64 }

@.str = private unnamed_addr constant [19 x i8] c"best_pos < len - 1\00", align 1
@.str.1 = private unnamed_addr constant [113 x i8] c"generated/home/dtcxzyw/WorkSpace/Projects/compilers/llvm-opt-benchmark/bench/clamav/clamav/libclamav/filtering.c\00", align 1
@__PRETTY_FUNCTION__.filter_add_static = private unnamed_addr constant [91 x i8] c"int filter_add_static(struct filter *, const unsigned char *, unsigned long, const char *)\00", align 1

; Function Attrs: nounwind uwtable
define internal void @filter_set_end(ptr noundef %0, i32 noundef %1, i16 noundef zeroext %2) #0 {
  %4 = alloca ptr, align 8
  %5 = alloca i32, align 4
  %6 = alloca i16, align 2
  store ptr %0, ptr %4, align 8
  store i32 %1, ptr %5, align 4
  store i16 %2, ptr %6, align 2
  %7 = load ptr, ptr %4, align 8
  %8 = load i32, ptr %5, align 4
  %9 = load i16, ptr %6, align 2
  %10 = call i32 @filter_end_isset(ptr noundef %7, i32 noundef %8, i16 noundef zeroext %9)
  %11 = icmp ne i32 %10, 0
  br i1 %11, label %27, label %12

12:                                               ; preds = %3
  br label %13

13:                                               ; preds = %12
  br label %14

14:                                               ; preds = %13
  %15 = load i32, ptr %5, align 4
  %16 = shl i32 1, %15
  %17 = xor i32 %16, -1
  %18 = load ptr, ptr %4, align 8
  %19 = getelementptr inbounds %struct.filter, ptr %18, i32 0, i32 1
  %20 = load i16, ptr %6, align 2
  %21 = zext i16 %20 to i64
  %22 = getelementptr inbounds [65536 x i8], ptr %19, i64 0, i64 %21
  %23 = load i8, ptr %22, align 1
  %24 = zext i8 %23 to i32
  %25 = and i32 %24, %17
  %26 = trunc i32 %25 to i8
  store i8 %26, ptr %22, align 1
  br label %27

27:                                               ; preds = %14, %3
  ret void
}

; Function Attrs: nounwind uwtable
define internal void @filter_set_atpos(ptr noundef %0, i32 noundef %1, i16 noundef zeroext %2) #0 {
  %4 = alloca ptr, align 8
  %5 = alloca i32, align 4
  %6 = alloca i16, align 2
  store ptr %0, ptr %4, align 8
  store i32 %1, ptr %5, align 4
  store i16 %2, ptr %6, align 2
  %7 = load ptr, ptr %4, align 8
  %8 = load i32, ptr %5, align 4
  %9 = load i16, ptr %6, align 2
  %10 = call i32 @filter_isset(ptr noundef %7, i32 noundef %8, i16 noundef zeroext %9)
  %11 = icmp ne i32 %10, 0
  br i1 %11, label %27, label %12

12:                                               ; preds = %3
  br label %13

13:                                               ; preds = %12
  br label %14

14:                                               ; preds = %13
  %15 = load i32, ptr %5, align 4
  %16 = shl i32 1, %15
  %17 = xor i32 %16, -1
  %18 = load ptr, ptr %4, align 8
  %19 = getelementptr inbounds %struct.filter, ptr %18, i32 0, i32 0
  %20 = load i16, ptr %6, align 2
  %21 = zext i16 %20 to i64
  %22 = getelementptr inbounds [65536 x i8], ptr %19, i64 0, i64 %21
  %23 = load i8, ptr %22, align 1
  %24 = zext i8 %23 to i32
  %25 = and i32 %24, %17
  %26 = trunc i32 %25 to i8
  store i8 %26, ptr %22, align 1
  br label %27

27:                                               ; preds = %14, %3
  ret void
}

; Function Attrs: nounwind uwtable
define internal i32 @filter_end_isset(ptr noundef %0, i32 noundef %1, i16 noundef zeroext %2) #0 {
  %4 = alloca ptr, align 8
  %5 = alloca i32, align 4
  %6 = alloca i16, align 2
  store ptr %0, ptr %4, align 8
  store i32 %1, ptr %5, align 4
  store i16 %2, ptr %6, align 2
  %7 = load ptr, ptr %4, align 8
  %8 = getelementptr inbounds %struct.filter, ptr %7, i32 0, i32 1
  %9 = load i16, ptr %6, align 2
  %10 = zext i16 %9 to i64
  %11 = getelementptr inbounds [65536 x i8], ptr %8, i64 0, i64 %10
  %12 = load i8, ptr %11, align 1
  %13 = zext i8 %12 to i32
  %14 = load i32, ptr %5, align 4
  %15 = shl i32 1, %14
  %16 = and i32 %13, %15
  %17 = icmp ne i32 %16, 0
  %18 = xor i1 %17, true
  %19 = zext i1 %18 to i32
  ret i32 %19
}

; Function Attrs: nounwind uwtable
define internal i32 @filter_isset(ptr noundef %0, i32 noundef %1, i16 noundef zeroext %2) #0 {
  %4 = alloca ptr, align 8
  %5 = alloca i32, align 4
  %6 = alloca i16, align 2
  store ptr %0, ptr %4, align 8
  store i32 %1, ptr %5, align 4
  store i16 %2, ptr %6, align 2
  %7 = load ptr, ptr %4, align 8
  %8 = getelementptr inbounds %struct.filter, ptr %7, i32 0, i32 0
  %9 = load i16, ptr %6, align 2
  %10 = zext i16 %9 to i64
  %11 = getelementptr inbounds [65536 x i8], ptr %8, i64 0, i64 %10
  %12 = load i8, ptr %11, align 1
  %13 = zext i8 %12 to i32
  %14 = load i32, ptr %5, align 4
  %15 = shl i32 1, %14
  %16 = and i32 %13, %15
  %17 = icmp ne i32 %16, 0
  %18 = xor i1 %17, true
  %19 = zext i1 %18 to i32
  ret i32 %19
}

; Function Attrs: nounwind uwtable
define i32 @filter_add_static(ptr noundef %0, ptr noundef %1, i64 noundef %2, ptr noundef %3) #0 {
  %5 = alloca i32, align 4
  %6 = alloca ptr, align 8
  %7 = alloca ptr, align 8
  %8 = alloca i64, align 8
  %9 = alloca ptr, align 8
  %10 = alloca i16, align 2
  %11 = alloca i8, align 1
  %12 = alloca i8, align 1
  %13 = alloca i32, align 4
  %14 = alloca i8, align 1
  %15 = alloca i32, align 4
  %16 = alloca i8, align 1
  store ptr %0, ptr %6, align 8
  store ptr %1, ptr %7, align 8
  store i64 %2, ptr %8, align 8
  store ptr %3, ptr %9, align 8
  store i16 0, ptr %10, align 2
  store i32 -1, ptr %13, align 4
  store i8 0, ptr %14, align 1
  br label %17

17:                                               ; preds = %4
  br label %18

18:                                               ; preds = %17
  %19 = load i64, ptr %8, align 8
  %20 = icmp ugt i64 %19, 255
  br i1 %20, label %21, label %22

21:                                               ; preds = %18
  store i64 255, ptr %8, align 8
  br label %22

22:                                               ; preds = %21, %18
  %23 = load i64, ptr %8, align 8
  %24 = icmp ult i64 %23, 2
  br i1 %24, label %25, label %26

25:                                               ; preds = %22
  store i32 -1, ptr %5, align 4
  br label %275

26:                                               ; preds = %22
  %27 = load i64, ptr %8, align 8
  %28 = icmp ugt i64 %27, 4
  br i1 %28, label %29, label %38

29:                                               ; preds = %26
  %30 = load i64, ptr %8, align 8
  %31 = sub i64 %30, 4
  %32 = trunc i64 %31 to i8
  store i8 %32, ptr %12, align 1
  %33 = load i8, ptr %12, align 1
  %34 = zext i8 %33 to i32
  %35 = icmp eq i32 %34, 1
  br i1 %35, label %36, label %37

36:                                               ; preds = %29
  store i8 2, ptr %12, align 1
  br label %37

37:                                               ; preds = %36, %29
  br label %39

38:                                               ; preds = %26
  store i8 2, ptr %12, align 1
  br label %39

39:                                               ; preds = %38, %37
  store i8 0, ptr %11, align 1
  br label %40

40:                                               ; preds = %198, %39
  %41 = load i32, ptr %13, align 4
  %42 = icmp ult i32 %41, 100
  br i1 %42, label %43, label %47

43:                                               ; preds = %40
  %44 = load i8, ptr %11, align 1
  %45 = zext i8 %44 to i32
  %46 = icmp slt i32 %45, 8
  br i1 %46, label %53, label %47

47:                                               ; preds = %43, %40
  %48 = load i8, ptr %11, align 1
  %49 = zext i8 %48 to i32
  %50 = load i8, ptr %12, align 1
  %51 = zext i8 %50 to i32
  %52 = icmp slt i32 %49, %51
  br label %53

53:                                               ; preds = %47, %43
  %54 = phi i1 [ true, %43 ], [ %52, %47 ]
  br i1 %54, label %55, label %201

55:                                               ; preds = %53
  store i32 8, ptr %15, align 4
  %56 = load i8, ptr %11, align 1
  %57 = zext i8 %56 to i32
  %58 = add nsw i32 %57, 2
  %59 = sext i32 %58 to i64
  %60 = load i64, ptr %8, align 8
  %61 = icmp ugt i64 %59, %60
  br i1 %61, label %62, label %63

62:                                               ; preds = %55
  br label %201

63:                                               ; preds = %55
  %64 = load i8, ptr %11, align 1
  store i8 %64, ptr %16, align 1
  br label %65

65:                                               ; preds = %137, %63
  %66 = load i8, ptr %16, align 1
  %67 = zext i8 %66 to i64
  %68 = load i64, ptr %8, align 8
  %69 = sub i64 %68, 1
  %70 = icmp ult i64 %67, %69
  br i1 %70, label %71, label %78

71:                                               ; preds = %65
  %72 = load i8, ptr %16, align 1
  %73 = zext i8 %72 to i32
  %74 = load i8, ptr %11, align 1
  %75 = zext i8 %74 to i32
  %76 = sub nsw i32 %73, %75
  %77 = icmp slt i32 %76, 8
  br label %78

78:                                               ; preds = %71, %65
  %79 = phi i1 [ false, %65 ], [ %77, %71 ]
  br i1 %79, label %80, label %140

80:                                               ; preds = %78
  %81 = load ptr, ptr %7, align 8
  %82 = load i8, ptr %16, align 1
  %83 = zext i8 %82 to i64
  %84 = getelementptr inbounds i8, ptr %81, i64 %83
  %85 = load i16, ptr %84, align 1
  store i16 %85, ptr %10, align 2
  %86 = load ptr, ptr %6, align 8
  %87 = load i8, ptr %16, align 1
  %88 = zext i8 %87 to i32
  %89 = load i8, ptr %11, align 1
  %90 = zext i8 %89 to i32
  %91 = sub nsw i32 %88, %90
  %92 = load i16, ptr %10, align 2
  %93 = call i32 @filter_isset(ptr noundef %86, i32 noundef %91, i16 noundef zeroext %92)
  %94 = icmp ne i32 %93, 0
  br i1 %94, label %95, label %96

95:                                               ; preds = %80
  br label %103

96:                                               ; preds = %80
  %97 = load i8, ptr %16, align 1
  %98 = zext i8 %97 to i32
  %99 = load i8, ptr %11, align 1
  %100 = zext i8 %99 to i32
  %101 = sub nsw i32 %98, %100
  %102 = sub nsw i32 8, %101
  br label %103

103:                                              ; preds = %96, %95
  %104 = phi i32 [ 0, %95 ], [ %102, %96 ]
  %105 = load i32, ptr %15, align 4
  %106 = add i32 %105, %104
  store i32 %106, ptr %15, align 4
  %107 = load i8, ptr %16, align 1
  %108 = zext i8 %107 to i32
  %109 = load i8, ptr %11, align 1
  %110 = zext i8 %109 to i32
  %111 = icmp eq i32 %108, %110
  br i1 %111, label %119, label %112

112:                                              ; preds = %103
  %113 = load i8, ptr %16, align 1
  %114 = zext i8 %113 to i32
  %115 = load i8, ptr %11, align 1
  %116 = zext i8 %115 to i32
  %117 = add nsw i32 %116, 1
  %118 = icmp eq i32 %114, %117
  br i1 %118, label %119, label %136

119:                                              ; preds = %112, %103
  %120 = load i16, ptr %10, align 2
  %121 = zext i16 %120 to i32
  %122 = icmp eq i32 %121, 0
  br i1 %122, label %127, label %123

123:                                              ; preds = %119
  %124 = load i16, ptr %10, align 2
  %125 = zext i16 %124 to i32
  %126 = icmp eq i32 %125, 65535
  br i1 %126, label %127, label %136

127:                                              ; preds = %123, %119
  %128 = load i8, ptr %16, align 1
  %129 = zext i8 %128 to i32
  %130 = load i8, ptr %11, align 1
  %131 = zext i8 %130 to i32
  %132 = icmp eq i32 %129, %131
  %133 = select i1 %132, i32 10000, i32 1000
  %134 = load i32, ptr %15, align 4
  %135 = add i32 %134, %133
  store i32 %135, ptr %15, align 4
  br label %136

136:                                              ; preds = %127, %123, %112
  br label %137

137:                                              ; preds = %136
  %138 = load i8, ptr %16, align 1
  %139 = add i8 %138, 1
  store i8 %139, ptr %16, align 1
  br label %65

140:                                              ; preds = %78
  %141 = load ptr, ptr %6, align 8
  %142 = load i8, ptr %16, align 1
  %143 = zext i8 %142 to i32
  %144 = load i8, ptr %11, align 1
  %145 = zext i8 %144 to i32
  %146 = sub nsw i32 %143, %145
  %147 = sub nsw i32 %146, 1
  %148 = load i16, ptr %10, align 2
  %149 = call i32 @filter_end_isset(ptr noundef %141, i32 noundef %147, i16 noundef zeroext %148)
  %150 = icmp ne i32 %149, 0
  %151 = select i1 %150, i32 0, i32 1
  %152 = mul nsw i32 10, %151
  %153 = load i32, ptr %15, align 4
  %154 = add i32 %153, %152
  store i32 %154, ptr %15, align 4
  %155 = load i8, ptr %16, align 1
  %156 = zext i8 %155 to i32
  %157 = load i8, ptr %11, align 1
  %158 = zext i8 %157 to i32
  %159 = sub nsw i32 %156, %158
  %160 = sub nsw i32 8, %159
  %161 = mul nsw i32 5, %160
  %162 = load i32, ptr %15, align 4
  %163 = add i32 %162, %161
  store i32 %163, ptr %15, align 4
  %164 = load i8, ptr %16, align 1
  %165 = zext i8 %164 to i32
  %166 = load i8, ptr %11, align 1
  %167 = zext i8 %166 to i32
  %168 = sub nsw i32 %165, %167
  %169 = add nsw i32 %168, 1
  %170 = icmp slt i32 %169, 4
  br i1 %170, label %171, label %174

171:                                              ; preds = %140
  %172 = load i32, ptr %15, align 4
  %173 = add i32 %172, 200
  store i32 %173, ptr %15, align 4
  br label %174

174:                                              ; preds = %171, %140
  %175 = load i8, ptr %16, align 1
  %176 = zext i8 %175 to i32
  %177 = add nsw i32 %176, 1
  %178 = load i8, ptr %11, align 1
  %179 = zext i8 %178 to i32
  %180 = add nsw i32 %177, %179
  %181 = sub nsw i32 16, %180
  %182 = load i8, ptr %16, align 1
  %183 = zext i8 %182 to i32
  %184 = load i8, ptr %11, align 1
  %185 = zext i8 %184 to i32
  %186 = sub nsw i32 %183, %185
  %187 = mul nsw i32 %181, %186
  %188 = sdiv i32 %187, 2
  %189 = load i32, ptr %15, align 4
  %190 = sub i32 %189, %188
  store i32 %190, ptr %15, align 4
  %191 = load i32, ptr %15, align 4
  %192 = load i32, ptr %13, align 4
  %193 = icmp ult i32 %191, %192
  br i1 %193, label %194, label %197

194:                                              ; preds = %174
  %195 = load i32, ptr %15, align 4
  store i32 %195, ptr %13, align 4
  %196 = load i8, ptr %11, align 1
  store i8 %196, ptr %14, align 1
  br label %197

197:                                              ; preds = %194, %174
  br label %198

198:                                              ; preds = %197
  %199 = load i8, ptr %11, align 1
  %200 = add i8 %199, 1
  store i8 %200, ptr %11, align 1
  br label %40

201:                                              ; preds = %62, %53
  %202 = load i8, ptr %14, align 1
  %203 = zext i8 %202 to i64
  %204 = load i64, ptr %8, align 8
  %205 = sub i64 %204, 1
  %206 = icmp ult i64 %203, %205
  br i1 %206, label %207, label %208

207:                                              ; preds = %201
  br label %209

208:                                              ; preds = %201
  call void @__assert_fail(ptr noundef @.str, ptr noundef @.str.1, i32 noundef 240, ptr noundef @__PRETTY_FUNCTION__.filter_add_static) #4
  unreachable

209:                                              ; preds = %207
  %210 = load ptr, ptr %7, align 8
  %211 = load i8, ptr %14, align 1
  %212 = zext i8 %211 to i64
  %213 = getelementptr inbounds i8, ptr %210, i64 %212
  %214 = load i8, ptr %213, align 1
  %215 = zext i8 %214 to i32
  %216 = icmp eq i32 %215, 0
  br i1 %216, label %217, label %228

217:                                              ; preds = %209
  %218 = load ptr, ptr %7, align 8
  %219 = load i8, ptr %14, align 1
  %220 = zext i8 %219 to i32
  %221 = add nsw i32 %220, 1
  %222 = sext i32 %221 to i64
  %223 = getelementptr inbounds i8, ptr %218, i64 %222
  %224 = load i8, ptr %223, align 1
  %225 = zext i8 %224 to i32
  %226 = icmp eq i32 %225, 0
  br i1 %226, label %227, label %228

227:                                              ; preds = %217
  br label %228

228:                                              ; preds = %227, %217, %209
  %229 = load i8, ptr %14, align 1
  %230 = zext i8 %229 to i32
  %231 = load ptr, ptr %7, align 8
  %232 = sext i32 %230 to i64
  %233 = getelementptr inbounds i8, ptr %231, i64 %232
  store ptr %233, ptr %7, align 8
  %234 = load i8, ptr %14, align 1
  %235 = zext i8 %234 to i64
  %236 = load i64, ptr %8, align 8
  %237 = sub i64 %236, %235
  store i64 %237, ptr %8, align 8
  %238 = load i64, ptr %8, align 8
  %239 = icmp ugt i64 %238, 8
  br i1 %239, label %240, label %241

240:                                              ; preds = %228
  store i64 8, ptr %8, align 8
  br label %241

241:                                              ; preds = %240, %228
  store i8 0, ptr %11, align 1
  br label %242

242:                                              ; preds = %258, %241
  %243 = load i8, ptr %11, align 1
  %244 = zext i8 %243 to i64
  %245 = load i64, ptr %8, align 8
  %246 = sub i64 %245, 1
  %247 = icmp ult i64 %244, %246
  br i1 %247, label %248, label %261

248:                                              ; preds = %242
  %249 = load ptr, ptr %7, align 8
  %250 = load i8, ptr %11, align 1
  %251 = zext i8 %250 to i64
  %252 = getelementptr inbounds i8, ptr %249, i64 %251
  %253 = load i16, ptr %252, align 1
  store i16 %253, ptr %10, align 2
  %254 = load ptr, ptr %6, align 8
  %255 = load i8, ptr %11, align 1
  %256 = zext i8 %255 to i32
  %257 = load i16, ptr %10, align 2
  call void @filter_set_atpos(ptr noundef %254, i32 noundef %256, i16 noundef zeroext %257)
  br label %258

258:                                              ; preds = %248
  %259 = load i8, ptr %11, align 1
  %260 = add i8 %259, 1
  store i8 %260, ptr %11, align 1
  br label %242

261:                                              ; preds = %242
  %262 = load i8, ptr %11, align 1
  %263 = icmp ne i8 %262, 0
  br i1 %263, label %264, label %271

264:                                              ; preds = %261
  %265 = load i8, ptr %11, align 1
  %266 = add i8 %265, -1
  store i8 %266, ptr %11, align 1
  %267 = load ptr, ptr %6, align 8
  %268 = load i8, ptr %11, align 1
  %269 = zext i8 %268 to i32
  %270 = load i16, ptr %10, align 2
  call void @filter_set_end(ptr noundef %267, i32 noundef %269, i16 noundef zeroext %270)
  br label %271

271:                                              ; preds = %264, %261
  %272 = load i8, ptr %11, align 1
  %273 = zext i8 %272 to i32
  %274 = add nsw i32 %273, 2
  store i32 %274, ptr %5, align 4
  br label %275

275:                                              ; preds = %271, %25
  %276 = load i32, ptr %5, align 4
  ret i32 %276
}